target datalayout = "e-m:e-p270:32:32-p271:32:32-p272:64:64-i64:64-i128:128-f80:128-n8:16:32:64-S128"
target triple = "x86_64-pc-linux-gnu"

%struct._object = type { %union.anon, ptr }
%union.anon = type { i64 }
%struct.PyVarObject = type { %struct._object, i64 }
%struct.PyTupleObject = type { %struct.PyVarObject, [1 x ptr] }
%struct._typeobject = type { %struct.PyVarObject, ptr, i64, i64, ptr, i64, ptr, ptr, ptr, ptr, ptr, ptr, ptr, ptr, ptr, ptr, ptr, ptr, ptr, i64, ptr, ptr, ptr, ptr, i64, ptr, ptr, ptr, ptr, ptr, ptr, ptr, ptr, ptr, i64, ptr, ptr, ptr, ptr, ptr, ptr, ptr, ptr, ptr, ptr, ptr, i32, ptr, ptr, i8, i16 }

@PyExc_TypeError = external global ptr, align 8
@PyExc_SystemError = external global ptr, align 8
@.str.119 = private unnamed_addr constant [1 x i8] zeroinitializer, align 1
@PyTuple_Type = external global %struct._typeobject, align 8
@.str.189 = private unnamed_addr constant [2 x i8] c"s\00", align 1
@.str.369 = private unnamed_addr constant [49 x i8] c"PyArg_UnpackTuple() argument list is not a tuple\00", align 1
@.str.370 = private unnamed_addr constant [32 x i8] c"expected %d argument%s, got %zd\00", align 1

; Function Attrs: inlinehint nounwind uwtable
define internal i64 @Py_SIZE(ptr noundef %0) #2 {
  %2 = alloca ptr, align 8
  store ptr %0, ptr %2, align 8, !tbaa !97
  %3 = load ptr, ptr %2, align 8, !tbaa !97
  %4 = getelementptr inbounds nuw %struct.PyVarObject, ptr %3, i32 0, i32 1
  %5 = load i64, ptr %4, align 8, !tbaa !375
  ret i64 %5
}

; Function Attrs: inlinehint nounwind uwtable
define internal ptr @_Py_TYPE(ptr noundef %0) #2 {
  %2 = alloca ptr, align 8
  store ptr %0, ptr %2, align 8, !tbaa !97
  %3 = load ptr, ptr %2, align 8, !tbaa !97
  %4 = getelementptr inbounds nuw %struct._object, ptr %3, i32 0, i32 1
  %5 = load ptr, ptr %4, align 8, !tbaa !243
  ret ptr %5
}

; Function Attrs: inlinehint nounwind uwtable
define internal i64 @PyTuple_GET_SIZE(ptr noundef %0) #2 {
  %2 = alloca ptr, align 8
  %3 = alloca ptr, align 8
  store ptr %0, ptr %2, align 8, !tbaa !97
  call void @llvm.lifetime.start.p0(i64 8, ptr %3) #11
  %4 = load ptr, ptr %2, align 8, !tbaa !97
  store ptr %4, ptr %3, align 8, !tbaa !13
  %5 = load ptr, ptr %3, align 8, !tbaa !13
  %6 = call i64 @Py_SIZE(ptr noundef %5)
  call void @llvm.lifetime.end.p0(i64 8, ptr %3) #11
  ret i64 %6
}

; Function Attrs: inlinehint nounwind uwtable
define internal i32 @Py_IS_TYPE(ptr noundef %0, ptr noundef %1) #2 {
  %3 = alloca ptr, align 8
  %4 = alloca ptr, align 8
  store ptr %0, ptr %3, align 8, !tbaa !97
  store ptr %1, ptr %4, align 8, !tbaa !9
  %5 = load ptr, ptr %3, align 8, !tbaa !97
  %6 = call ptr @_Py_TYPE(ptr noundef %5)
  %7 = load ptr, ptr %4, align 8, !tbaa !9
  %8 = icmp eq ptr %6, %7
  %9 = zext i1 %8 to i32
  ret i32 %9
}

; Function Attrs: nounwind uwtable
define internal i32 @check_num_args(ptr noundef %0, i32 noundef %1) #0 {
  %3 = alloca i32, align 4
  %4 = alloca ptr, align 8
  %5 = alloca i32, align 4
  store ptr %0, ptr %4, align 8, !tbaa !97
  store i32 %1, ptr %5, align 4, !tbaa !115
  %6 = load ptr, ptr %4, align 8, !tbaa !97
  %7 = call i32 @Py_IS_TYPE(ptr noundef %6, ptr noundef @PyTuple_Type)
  %8 = icmp ne i32 %7, 0
  br i1 %8, label %11, label %9

9:                                                ; preds = %2
  %10 = load ptr, ptr @PyExc_SystemError, align 8, !tbaa !97
  call void @PyErr_SetString(ptr noundef %10, ptr noundef @.str.369)
  store i32 0, ptr %3, align 4
  br label %27

11:                                               ; preds = %2
  %12 = load i32, ptr %5, align 4, !tbaa !115
  %13 = sext i32 %12 to i64
  %14 = load ptr, ptr %4, align 8, !tbaa !97
  %15 = call i64 @PyTuple_GET_SIZE(ptr noundef %14)
  %16 = icmp eq i64 %13, %15
  br i1 %16, label %17, label %18

17:                                               ; preds = %11
  store i32 1, ptr %3, align 4
  br label %27

18:                                               ; preds = %11
  %19 = load ptr, ptr @PyExc_TypeError, align 8, !tbaa !97
  %20 = load i32, ptr %5, align 4, !tbaa !115
  %21 = load i32, ptr %5, align 4, !tbaa !115
  %22 = icmp eq i32 %21, 1
  %23 = select i1 %22, ptr @.str.119, ptr @.str.189
  %24 = load ptr, ptr %4, align 8, !tbaa !97
  %25 = call i64 @PyTuple_GET_SIZE(ptr noundef %24)
  %26 = call ptr (ptr, ptr, ...) @PyErr_Format(ptr noundef %19, ptr noundef @.str.370, i32 noundef %20, ptr noundef %23, i64 noundef %25)
  store i32 0, ptr %3, align 4
  br label %27

27:                                               ; preds = %18, %17, %9
  %28 = load i32, ptr %3, align 4
  ret i32 %28
}

; Function Attrs: nounwind uwtable
define internal ptr @wrap_richcmpfunc(ptr noundef %0, ptr noundef %1, ptr noundef %2, i32 noundef %3) #0 {
  %5 = alloca ptr, align 8
  %6 = alloca ptr, align 8
  %7 = alloca ptr, align 8
  %8 = alloca ptr, align 8
  %9 = alloca i32, align 4
  %10 = alloca ptr, align 8
  %11 = alloca ptr, align 8
  %12 = alloca i32, align 4
  store ptr %0, ptr %6, align 8, !tbaa !97
  store ptr %1, ptr %7, align 8, !tbaa !97
  store ptr %2, ptr %8, align 8, !tbaa !13
  store i32 %3, ptr %9, align 4, !tbaa !115
  call void @llvm.lifetime.start.p0(i64 8, ptr %10) #11
  %13 = load ptr, ptr %8, align 8, !tbaa !13
  store ptr %13, ptr %10, align 8, !tbaa !13
  call void @llvm.lifetime.start.p0(i64 8, ptr %11) #11
  %14 = load ptr, ptr %7, align 8, !tbaa !97
  %15 = call i32 @check_num_args(ptr noundef %14, i32 noundef 1)
  %16 = icmp ne i32 %15, 0
  br i1 %16, label %18, label %17

17:                                               ; preds = %4
  store ptr null, ptr %5, align 8
  store i32 1, ptr %12, align 4
  br label %28

18:                                               ; preds = %4
  %19 = load ptr, ptr %7, align 8, !tbaa !97
  %20 = getelementptr inbounds nuw %struct.PyTupleObject, ptr %19, i32 0, i32 1
  %21 = getelementptr [1 x ptr], ptr %20, i64 0, i64 0
  %22 = load ptr, ptr %21, align 8, !tbaa !97
  store ptr %22, ptr %11, align 8, !tbaa !97
  %23 = load ptr, ptr %10, align 8, !tbaa !13
  %24 = load ptr, ptr %6, align 8, !tbaa !97
  %25 = load ptr, ptr %11, align 8, !tbaa !97
  %26 = load i32, ptr %9, align 4, !tbaa !115
  %27 = call ptr %23(ptr noundef %24, ptr noundef %25, i32 noundef %26)
  store ptr %27, ptr %5, align 8
  store i32 1, ptr %12, align 4
  br label %28

28:                                               ; preds = %18, %17
  call void @llvm.lifetime.end.p0(i64 8, ptr %11) #11
  call void @llvm.lifetime.end.p0(i64 8, ptr %10) #11
  %29 = load ptr, ptr %5, align 8
  ret ptr %29
}

; Function Attrs: nounwind uwtable
define internal ptr @richcmp_gt(ptr noundef %0, ptr noundef %1, ptr noundef %2) #0 {
  %4 = alloca ptr, align 8
  %5 = alloca ptr, align 8
  %6 = alloca ptr, align 8
  store ptr %0, ptr %4, align 8, !tbaa !97
  store ptr %1, ptr %5, align 8, !tbaa !97
  store ptr %2, ptr %6, align 8, !tbaa !13
  %7 = load ptr, ptr %4, align 8, !tbaa !97
  %8 = load ptr, ptr %5, align 8, !tbaa !97
  %9 = load ptr, ptr %6, align 8, !tbaa !13
  %10 = call ptr @wrap_richcmpfunc(ptr noundef %7, ptr noundef %8, ptr noundef %9, i32 noundef 4)
  ret ptr %10
}